target datalayout = "e-m:e-p270:32:32-p271:32:32-p272:64:64-i64:64-i128:128-f80:128-n8:16:32:64-S128"
target triple = "x86_64-pc-linux-gnu"

%"struct.pxrInternal_v0_24__pxrReserved__::HgiMultiSampleState" = type { i8, i8, i8, i32 }

; Function Attrs: mustprogress nounwind uwtable
define noundef zeroext i1 @_ZN32pxrInternal_v0_24__pxrReserved__eqERKNS_19HgiMultiSampleStateES2_(ptr noundef nonnull align 4 dereferenceable(8) %0, ptr noundef nonnull align 4 dereferenceable(8) %1) #0 {
  %3 = alloca ptr, align 8
  %4 = alloca ptr, align 8
  store ptr %0, ptr %3, align 8
  store ptr %1, ptr %4, align 8
  %5 = load ptr, ptr %3, align 8
  %6 = getelementptr inbounds nuw %"struct.pxrInternal_v0_24__pxrReserved__::HgiMultiSampleState", ptr %5, i32 0, i32 0
  %7 = load i8, ptr %6, align 4
  %8 = trunc i8 %7 to i1
  %9 = zext i1 %8 to i32
  %10 = load ptr, ptr %4, align 8
  %11 = getelementptr inbounds nuw %"struct.pxrInternal_v0_24__pxrReserved__::HgiMultiSampleState", ptr %10, i32 0, i32 0
  %12 = load i8, ptr %11, align 4
  %13 = trunc i8 %12 to i1
  %14 = zext i1 %13 to i32
  %15 = icmp eq i32 %9, %14
  br i1 %15, label %16, label %48

16:                                               ; preds = %2
  %17 = load ptr, ptr %3, align 8
  %18 = getelementptr inbounds nuw %"struct.pxrInternal_v0_24__pxrReserved__::HgiMultiSampleState", ptr %17, i32 0, i32 1
  %19 = load i8, ptr %18, align 1
  %20 = trunc i8 %19 to i1
  %21 = zext i1 %20 to i32
  %22 = load ptr, ptr %4, align 8
  %23 = getelementptr inbounds nuw %"struct.pxrInternal_v0_24__pxrReserved__::HgiMultiSampleState", ptr %22, i32 0, i32 1
  %24 = load i8, ptr %23, align 1
  %25 = trunc i8 %24 to i1
  %26 = zext i1 %25 to i32
  %27 = icmp eq i32 %21, %26
  br i1 %27, label %28, label %48

28:                                               ; preds = %16
  %29 = load ptr, ptr %3, align 8
  %30 = getelementptr inbounds nuw %"struct.pxrInternal_v0_24__pxrReserved__::HgiMultiSampleState", ptr %29, i32 0, i32 2
  %31 = load i8, ptr %30, align 2
  %32 = trunc i8 %31 to i1
  %33 = zext i1 %32 to i32
  %34 = load ptr, ptr %4, align 8
  %35 = getelementptr inbounds nuw %"struct.pxrInternal_v0_24__pxrReserved__::HgiMultiSampleState", ptr %34, i32 0, i32 2
  %36 = load i8, ptr %35, align 2
  %37 = trunc i8 %36 to i1
  %38 = zext i1 %37 to i32
  %39 = icmp eq i32 %33, %38
  br i1 %39, label %40, label %48

40:                                               ; preds = %28
  %41 = load ptr, ptr %3, align 8
  %42 = getelementptr inbounds nuw %"struct.pxrInternal_v0_24__pxrReserved__::HgiMultiSampleState", ptr %41, i32 0, i32 3
  %43 = load i32, ptr %42, align 4
  %44 = load ptr, ptr %4, align 8
  %45 = getelementptr inbounds nuw %"struct.pxrInternal_v0_24__pxrReserved__::HgiMultiSampleState", ptr %44, i32 0, i32 3
  %46 = load i32, ptr %45, align 4
  %47 = icmp eq i32 %43, %46
  br label %48

48:                                               ; preds = %40, %28, %16, %2
  %49 = phi i1 [ false, %28 ], [ false, %16 ], [ false, %2 ], [ %47, %40 ]
  ret i1 %49
}