; Function Attrs: mustprogress nofree norecurse nosync nounwind willreturn memory(argmem: read) uwtable
define noundef zeroext i1 @_ZN32pxrInternal_v0_24__pxrReserved__eqERKNS_19HgiMultiSampleStateES2_(ptr nocapture noundef nonnull readonly align 4 dereferenceable(8) %0, ptr nocapture noundef nonnull readonly align 4 dereferenceable(8) %1) local_unnamed_addr #1 {
  %3 = load i8, ptr %0, align 4
  %4 = load i8, ptr %1, align 4
  %5 = xor i8 %4, %3
  %6 = and i8 %5, 1
  %7 = icmp eq i8 %6, 0
  br i1 %7, label %8, label %30

8:                                                ; preds = %2
  %9 = getelementptr inbounds nuw i8, ptr %0, i64 1
  %10 = load i8, ptr %9, align 1
  %11 = getelementptr inbounds nuw i8, ptr %1, i64 1
  %12 = load i8, ptr %11, align 1
  %13 = xor i8 %12, %10
  %14 = and i8 %13, 1
  %15 = icmp eq i8 %14, 0
  br i1 %15, label %16, label %30

16:                                               ; preds = %8
  %17 = getelementptr inbounds nuw i8, ptr %0, i64 2
  %18 = load i8, ptr %17, align 2
  %19 = getelementptr inbounds nuw i8, ptr %1, i64 2
  %20 = load i8, ptr %19, align 2
  %21 = xor i8 %20, %18
  %22 = and i8 %21, 1
  %23 = icmp eq i8 %22, 0
  br i1 %23, label %24, label %30

24:                                               ; preds = %16
  %25 = getelementptr inbounds nuw i8, ptr %0, i64 4
  %26 = load i32, ptr %25, align 4
  %27 = getelementptr inbounds nuw i8, ptr %1, i64 4
  %28 = load i32, ptr %27, align 4
  %29 = icmp eq i32 %26, %28
  br label %30

30:                                               ; preds = %24, %16, %8, %2
  %31 = phi i1 [ false, %16 ], [ false, %8 ], [ false, %2 ], [ %29, %24 ]
  ret i1 %31
}